target datalayout = "e-m:e-p270:32:32-p271:32:32-p272:64:64-i64:64-i128:128-f80:128-n8:16:32:64-S128"
target triple = "x86_64-pc-linux-gnu"

%"struct.vcpkg::LocalizedString" = type { %"class.std::__cxx11::basic_string" }
%"class.std::__cxx11::basic_string" = type { %"struct.std::__cxx11::basic_string<char>::_Alloc_hider", i64, %union.anon }
%"struct.std::__cxx11::basic_string<char>::_Alloc_hider" = type { ptr }
%union.anon = type { i64, [8 x i8] }
%"struct.vcpkg::Span" = type { ptr, i64 }

; Function Attrs: mustprogress uwtable
define dso_local noundef nonnull align 8 dereferenceable(32) ptr @_ZNR5vcpkg15LocalizedString13append_indentEm(ptr noundef nonnull align 8 dereferenceable(32) %0, i64 noundef %1) #2 align 2 {
  %3 = alloca ptr, align 8
  %4 = alloca i64, align 8
  store ptr %0, ptr %3, align 8
  store i64 %1, ptr %4, align 8
  %5 = load ptr, ptr %3, align 8
  %6 = getelementptr inbounds %"struct.vcpkg::LocalizedString", ptr %5, i32 0, i32 0
  %7 = load i64, ptr %4, align 8
  %8 = mul i64 %7, 2
  %9 = call noundef nonnull align 8 dereferenceable(32) ptr @_ZNSt7__cxx1112basic_stringIcSt11char_traitsIcESaIcEE6appendEmc(ptr noundef nonnull align 8 dereferenceable(32) %6, i64 noundef %8, i8 noundef signext 32)
  ret ptr %5
}

; Function Attrs: mustprogress nounwind uwtable
define linkonce_odr dso_local noundef ptr @_ZNK5vcpkg4SpanIKNS_15LocalizedStringEE3endEv(ptr noundef nonnull align 8 dereferenceable(16) %0) #0 comdat align 2 {
  %2 = alloca ptr, align 8
  store ptr %0, ptr %2, align 8
  %3 = load ptr, ptr %2, align 8
  %4 = getelementptr inbounds %"struct.vcpkg::Span", ptr %3, i32 0, i32 0
  %5 = load ptr, ptr %4, align 8
  %6 = getelementptr inbounds %"struct.vcpkg::Span", ptr %3, i32 0, i32 1
  %7 = load i64, ptr %6, align 8
  %8 = getelementptr inbounds %"struct.vcpkg::LocalizedString", ptr %5, i64 %7
  ret ptr %8
}

; Function Attrs: mustprogress nounwind uwtable
define linkonce_odr dso_local noundef ptr @_ZNK5vcpkg4SpanIKNS_15LocalizedStringEE5beginEv(ptr noundef nonnull align 8 dereferenceable(16) %0) #0 comdat align 2 {
  %2 = alloca ptr, align 8
  store ptr %0, ptr %2, align 8
  %3 = load ptr, ptr %2, align 8
  %4 = getelementptr inbounds %"struct.vcpkg::Span", ptr %3, i32 0, i32 0
  %5 = load ptr, ptr %4, align 8
  ret ptr %5
}

; Function Attrs: mustprogress uwtable
define dso_local noundef nonnull align 8 dereferenceable(32) ptr @_ZNR5vcpkg15LocalizedString6appendERKS0_(ptr noundef nonnull align 8 dereferenceable(32) %0, ptr noundef nonnull align 8 dereferenceable(32) %1) #2 align 2 {
  %3 = alloca ptr, align 8
  %4 = alloca ptr, align 8
  store ptr %0, ptr %3, align 8
  store ptr %1, ptr %4, align 8
  %5 = load ptr, ptr %3, align 8
  %6 = getelementptr inbounds %"struct.vcpkg::LocalizedString", ptr %5, i32 0, i32 0
  %7 = load ptr, ptr %4, align 8
  %8 = getelementptr inbounds %"struct.vcpkg::LocalizedString", ptr %7, i32 0, i32 0
  %9 = call noundef nonnull align 8 dereferenceable(32) ptr @_ZNSt7__cxx1112basic_stringIcSt11char_traitsIcESaIcEE6appendERKS4_(ptr noundef nonnull align 8 dereferenceable(32) %6, ptr noundef nonnull align 8 dereferenceable(32) %8)
  ret ptr %5
}

; Function Attrs: mustprogress nounwind uwtable
define linkonce_odr dso_local noundef nonnull align 8 dereferenceable(32) ptr @_ZNK5vcpkg4SpanIKNS_15LocalizedStringEEixEm(ptr noundef nonnull align 8 dereferenceable(16) %0, i64 noundef %1) #0 comdat align 2 {
  %3 = alloca ptr, align 8
  %4 = alloca i64, align 8
  store ptr %0, ptr %3, align 8
  store i64 %1, ptr %4, align 8
  %5 = load ptr, ptr %3, align 8
  %6 = getelementptr inbounds %"struct.vcpkg::Span", ptr %5, i32 0, i32 0
  %7 = load ptr, ptr %6, align 8
  %8 = load i64, ptr %4, align 8
  %9 = getelementptr inbounds %"struct.vcpkg::LocalizedString", ptr %7, i64 %8
  ret ptr %9
}

; Function Attrs: mustprogress uwtable
define dso_local noundef nonnull align 8 dereferenceable(32) ptr @_ZNR5vcpkg15LocalizedString10append_rawEc(ptr noundef nonnull align 8 dereferenceable(32) %0, i8 noundef signext %1) #2 align 2 {
  %3 = alloca ptr, align 8
  %4 = alloca i8, align 1
  store ptr %0, ptr %3, align 8
  store i8 %1, ptr %4, align 1
  %5 = load ptr, ptr %3, align 8
  %6 = getelementptr inbounds %"struct.vcpkg::LocalizedString", ptr %5, i32 0, i32 0
  %7 = load i8, ptr %4, align 1
  call void @_ZNSt7__cxx1112basic_stringIcSt11char_traitsIcESaIcEE9push_backEc(ptr noundef nonnull align 8 dereferenceable(32) %6, i8 noundef signext %7)
  ret ptr %5
}

; Function Attrs: mustprogress nounwind uwtable
define linkonce_odr dso_local noundef i64 @_ZNK5vcpkg4SpanIKNS_15LocalizedStringEE4sizeEv(ptr noundef nonnull align 8 dereferenceable(16) %0) #0 comdat align 2 {
  %2 = alloca ptr, align 8
  store ptr %0, ptr %2, align 8
  %3 = load ptr, ptr %2, align 8
  %4 = getelementptr inbounds %"struct.vcpkg::Span", ptr %3, i32 0, i32 1
  %5 = load i64, ptr %4, align 8
  ret i64 %5
}

; Function Attrs: mustprogress uwtable
define dso_local noundef nonnull align 8 dereferenceable(32) ptr @_ZNR5vcpkg15LocalizedString20append_floating_listEiNS_4SpanIKS0_EE(ptr noundef nonnull align 8 dereferenceable(32) %0, i32 noundef %1, ptr %2, i64 %3) #2 align 2 {
  %5 = alloca %"struct.vcpkg::Span", align 8
  %6 = alloca ptr, align 8
  %7 = alloca i32, align 4
  %8 = alloca ptr, align 8
  %9 = alloca ptr, align 8
  %10 = alloca ptr, align 8
  %11 = alloca ptr, align 8
  %12 = getelementptr inbounds { ptr, i64 }, ptr %5, i32 0, i32 0
  store ptr %2, ptr %12, align 8
  %13 = getelementptr inbounds { ptr, i64 }, ptr %5, i32 0, i32 1
  store i64 %3, ptr %13, align 8
  store ptr %0, ptr %6, align 8
  store i32 %1, ptr %7, align 4
  %14 = load ptr, ptr %6, align 8
  %15 = call noundef i64 @_ZNK5vcpkg4SpanIKNS_15LocalizedStringEE4sizeEv(ptr noundef nonnull align 8 dereferenceable(16) %5) #8
  switch i64 %15, label %21 [
    i64 0, label %16
    i64 1, label %17
  ]

16:                                               ; preds = %4
  br label %42

17:                                               ; preds = %4
  %18 = call noundef nonnull align 8 dereferenceable(32) ptr @_ZNR5vcpkg15LocalizedString10append_rawEc(ptr noundef nonnull align 8 dereferenceable(32) %14, i8 noundef signext 32)
  %19 = call noundef nonnull align 8 dereferenceable(32) ptr @_ZNK5vcpkg4SpanIKNS_15LocalizedStringEEixEm(ptr noundef nonnull align 8 dereferenceable(16) %5, i64 noundef 0) #8
  %20 = call noundef nonnull align 8 dereferenceable(32) ptr @_ZNR5vcpkg15LocalizedString6appendERKS0_(ptr noundef nonnull align 8 dereferenceable(32) %18, ptr noundef nonnull align 8 dereferenceable(32) %19)
  br label %42

21:                                               ; preds = %4
  store ptr %5, ptr %8, align 8
  %22 = load ptr, ptr %8, align 8
  %23 = call noundef ptr @_ZNK5vcpkg4SpanIKNS_15LocalizedStringEE5beginEv(ptr noundef nonnull align 8 dereferenceable(16) %22) #8
  store ptr %23, ptr %9, align 8
  %24 = load ptr, ptr %8, align 8
  %25 = call noundef ptr @_ZNK5vcpkg4SpanIKNS_15LocalizedStringEE3endEv(ptr noundef nonnull align 8 dereferenceable(16) %24) #8
  store ptr %25, ptr %10, align 8
  br label %26

26:                                               ; preds = %38, %21
  %27 = load ptr, ptr %9, align 8
  %28 = load ptr, ptr %10, align 8
  %29 = icmp ne ptr %27, %28
  br i1 %29, label %30, label %41

30:                                               ; preds = %26
  %31 = load ptr, ptr %9, align 8
  store ptr %31, ptr %11, align 8
  %32 = call noundef nonnull align 8 dereferenceable(32) ptr @_ZNR5vcpkg15LocalizedString10append_rawEc(ptr noundef nonnull align 8 dereferenceable(32) %14, i8 noundef signext 10)
  %33 = load i32, ptr %7, align 4
  %34 = sext i32 %33 to i64
  %35 = call noundef nonnull align 8 dereferenceable(32) ptr @_ZNR5vcpkg15LocalizedString13append_indentEm(ptr noundef nonnull align 8 dereferenceable(32) %32, i64 noundef %34)
  %36 = load ptr, ptr %11, align 8
  %37 = call noundef nonnull align 8 dereferenceable(32) ptr @_ZNR5vcpkg15LocalizedString6appendERKS0_(ptr noundef nonnull align 8 dereferenceable(32) %35, ptr noundef nonnull align 8 dereferenceable(32) %36)
  br label %38

38:                                               ; preds = %30
  %39 = load ptr, ptr %9, align 8
  %40 = getelementptr inbounds %"struct.vcpkg::LocalizedString", ptr %39, i32 1
  store ptr %40, ptr %9, align 8
  br label %26

41:                                               ; preds = %26
  br label %42

42:                                               ; preds = %41, %17, %16
  ret ptr %14
}

; Function Attrs: mustprogress uwtable
define dso_local noundef nonnull align 8 dereferenceable(32) ptr @_ZNO5vcpkg15LocalizedString20append_floating_listEiNS_4SpanIKS0_EE(ptr noundef nonnull align 8 dereferenceable(32) %0, i32 noundef %1, ptr %2, i64 %3) #2 align 2 {
  %5 = alloca %"struct.vcpkg::Span", align 8
  %6 = alloca ptr, align 8
  %7 = alloca i32, align 4
  %8 = alloca %"struct.vcpkg::Span", align 8
  %9 = getelementptr inbounds { ptr, i64 }, ptr %5, i32 0, i32 0
  store ptr %2, ptr %9, align 8
  %10 = getelementptr inbounds { ptr, i64 }, ptr %5, i32 0, i32 1
  store i64 %3, ptr %10, align 8
  store ptr %0, ptr %6, align 8
  store i32 %1, ptr %7, align 4
  %11 = load ptr, ptr %6, align 8
  %12 = load i32, ptr %7, align 4
  call void @llvm.memcpy.p0.p0.i64(ptr align 8 %8, ptr align 8 %5, i64 16, i1 false)
  %13 = getelementptr inbounds { ptr, i64 }, ptr %8, i32 0, i32 0
  %14 = load ptr, ptr %13, align 8
  %15 = getelementptr inbounds { ptr, i64 }, ptr %8, i32 0, i32 1
  %16 = load i64, ptr %15, align 8
  %17 = call noundef nonnull align 8 dereferenceable(32) ptr @_ZNR5vcpkg15LocalizedString20append_floating_listEiNS_4SpanIKS0_EE(ptr noundef nonnull align 8 dereferenceable(32) %11, i32 noundef %12, ptr %14, i64 %16)
  ret ptr %17
}