; Function Attrs: mustprogress uwtable
define dso_local noundef nonnull align 8 dereferenceable(32) ptr @_ZNO5vcpkg15LocalizedString20append_floating_listEiNS_4SpanIKS0_EE(ptr noundef nonnull returned align 8 dereferenceable(32) %0, i32 noundef %1, ptr %2, i64 %3) local_unnamed_addr #3 align 2 {
  switch i64 %3, label %.lr.ph.i [
    i64 0, label %_ZNR5vcpkg15LocalizedString20append_floating_listEiNS_4SpanIKS0_EE.exit
    i64 1, label %5
  ]

5:                                                ; preds = %4
  tail call void @_ZNSt7__cxx1112basic_stringIcSt11char_traitsIcESaIcEE9push_backEc(ptr noundef nonnull align 8 dereferenceable(32) %0, i8 noundef signext 32)
  %6 = tail call noundef nonnull align 8 dereferenceable(32) ptr @_ZNSt7__cxx1112basic_stringIcSt11char_traitsIcESaIcEE6appendERKS4_(ptr noundef nonnull align 8 dereferenceable(32) %0, ptr noundef nonnull align 8 dereferenceable(32) %2)
  br label %_ZNR5vcpkg15LocalizedString20append_floating_listEiNS_4SpanIKS0_EE.exit

.lr.ph.i:                                         ; preds = %4
  %7 = getelementptr inbounds %"struct.vcpkg::LocalizedString", ptr %2, i64 %3
  %8 = sext i32 %1 to i64
  %9 = shl nsw i64 %8, 1
  br label %10

10:                                               ; preds = %10, %.lr.ph.i
  %.012.i = phi ptr [ %2, %.lr.ph.i ], [ %13, %10 ]
  tail call void @_ZNSt7__cxx1112basic_stringIcSt11char_traitsIcESaIcEE9push_backEc(ptr noundef nonnull align 8 dereferenceable(32) %0, i8 noundef signext 10)
  %11 = tail call noundef nonnull align 8 dereferenceable(32) ptr @_ZNSt7__cxx1112basic_stringIcSt11char_traitsIcESaIcEE6appendEmc(ptr noundef nonnull align 8 dereferenceable(32) %0, i64 noundef %9, i8 noundef signext 32)
  %12 = tail call noundef nonnull align 8 dereferenceable(32) ptr @_ZNSt7__cxx1112basic_stringIcSt11char_traitsIcESaIcEE6appendERKS4_(ptr noundef nonnull align 8 dereferenceable(32) %0, ptr noundef nonnull align 8 dereferenceable(32) %.012.i)
  %13 = getelementptr inbounds i8, ptr %.012.i, i64 32
  %.not.i = icmp eq ptr %13, %7
  br i1 %.not.i, label %_ZNR5vcpkg15LocalizedString20append_floating_listEiNS_4SpanIKS0_EE.exit, label %10

_ZNR5vcpkg15LocalizedString20append_floating_listEiNS_4SpanIKS0_EE.exit: ; preds = %10, %4, %5
  ret ptr %0
}